target datalayout = "e-m:e-p270:32:32-p271:32:32-p272:64:64-i64:64-i128:128-f80:128-n8:16:32:64-S128"
target triple = "x86_64-pc-linux-gnu"

; Function Attrs: mustprogress uwtable
define void @_ZN6GLArea22displayViewerHighlightEv(ptr noundef nonnull align 8 dereferenceable(1676) %0) #5 align 2 {
  %2 = alloca ptr, align 8
  %3 = alloca i32, align 4
  store ptr %0, ptr %2, align 8
  %4 = load ptr, ptr %2, align 8
  call void @_ZN9QGLWidget11makeCurrentEv(ptr noundef nonnull align 8 dereferenceable(48) %4)
  call void @glPushAttrib(i32 noundef 4)
  call void @glMatrixMode(i32 noundef 5889)
  call void @glPushMatrix()
  call void @glLoadIdentity()
  call void @glOrtho(double noundef -1.000000e+00, double noundef 1.000000e+00, double noundef -1.000000e+00, double noundef 1.000000e+00, double noundef -1.000000e+00, double noundef 1.000000e+00)
  call void @glMatrixMode(i32 noundef 5888)
  call void @glPushMatrix()
  call void @glLoadIdentity()
  call void @glPushAttrib(i32 noundef 8192)
  call void @glDisable(i32 noundef 2929)
  call void @glDisable(i32 noundef 2896)
  call void @glDisable(i32 noundef 3553)
  call void @glEnable(i32 noundef 3042)
  call void @glBlendFunc(i32 noundef 770, i32 noundef 771)
  call void @glColor4f(float noundef 1.000000e+00, float noundef 1.000000e+00, float noundef 1.000000e+00, float noundef 0x3FD3333340000000)
  store i32 5, ptr %3, align 4
  br label %5

5:                                                ; preds = %11, %1
  %6 = load i32, ptr %3, align 4
  %7 = icmp sgt i32 %6, 0
  br i1 %7, label %8, label %14

8:                                                ; preds = %5
  %9 = load i32, ptr %3, align 4
  %10 = sitofp i32 %9 to float
  call void @glLineWidth(float noundef %10)
  call void @glBegin(i32 noundef 2)
  call void @glVertex2f(float noundef -1.000000e+00, float noundef 1.000000e+00)
  call void @glVertex2f(float noundef 1.000000e+00, float noundef 1.000000e+00)
  call void @glVertex2f(float noundef 1.000000e+00, float noundef -1.000000e+00)
  call void @glVertex2f(float noundef -1.000000e+00, float noundef -1.000000e+00)
  call void @glEnd()
  br label %11

11:                                               ; preds = %8
  %12 = load i32, ptr %3, align 4
  %13 = sub nsw i32 %12, 2
  store i32 %13, ptr %3, align 4
  br label %5, !llvm.loop !36

14:                                               ; preds = %5
  call void @glPopAttrib()
  call void @glPopMatrix()
  call void @glMatrixMode(i32 noundef 5889)
  call void @glPopMatrix()
  call void @glMatrixMode(i32 noundef 5888)
  call void @glPopAttrib()
  ret void
}