; Function Attrs: mustprogress uwtable
define void @_ZN6GLArea22displayViewerHighlightEv(ptr noundef nonnull align 8 dereferenceable(1676) %0) local_unnamed_addr #9 align 2 {
  tail call void @_ZN9QGLWidget11makeCurrentEv(ptr noundef nonnull align 8 dereferenceable(48) %0)
  tail call void @glPushAttrib(i32 noundef 4)
  tail call void @glMatrixMode(i32 noundef 5889)
  tail call void @glPushMatrix()
  tail call void @glLoadIdentity()
  tail call void @glOrtho(double noundef -1.000000e+00, double noundef 1.000000e+00, double noundef -1.000000e+00, double noundef 1.000000e+00, double noundef -1.000000e+00, double noundef 1.000000e+00)
  tail call void @glMatrixMode(i32 noundef 5888)
  tail call void @glPushMatrix()
  tail call void @glLoadIdentity()
  tail call void @glPushAttrib(i32 noundef 8192)
  tail call void @glDisable(i32 noundef 2929)
  tail call void @glDisable(i32 noundef 2896)
  tail call void @glDisable(i32 noundef 3553)
  tail call void @glEnable(i32 noundef 3042)
  tail call void @glBlendFunc(i32 noundef 770, i32 noundef 771)
  tail call void @glColor4f(float noundef 1.000000e+00, float noundef 1.000000e+00, float noundef 1.000000e+00, float noundef 0x3FD3333340000000)
  br label %2

2:                                                ; preds = %1, %2
  %.03 = phi i32 [ 5, %1 ], [ %4, %2 ]
  %3 = sitofp i32 %.03 to float
  tail call void @glLineWidth(float noundef %3)
  tail call void @glBegin(i32 noundef 2)
  tail call void @glVertex2f(float noundef -1.000000e+00, float noundef 1.000000e+00)
  tail call void @glVertex2f(float noundef 1.000000e+00, float noundef 1.000000e+00)
  tail call void @glVertex2f(float noundef 1.000000e+00, float noundef -1.000000e+00)
  tail call void @glVertex2f(float noundef -1.000000e+00, float noundef -1.000000e+00)
  tail call void @glEnd()
  %4 = add nsw i32 %.03, -2
  %5 = icmp ugt i32 %.03, 2
  br i1 %5, label %2, label %6, !llvm.loop !96

6:                                                ; preds = %2
  tail call void @glPopAttrib()
  tail call void @glPopMatrix()
  tail call void @glMatrixMode(i32 noundef 5889)
  tail call void @glPopMatrix()
  tail call void @glMatrixMode(i32 noundef 5888)
  tail call void @glPopAttrib()
  ret void
}